(dp0
S'all'
p1
(I0
I18
I1
tp2
sS'month'
p3
(I18
I18
I1
tp4
sVpublish
p5
(I36
I18
I1
tp6
sVgo
p7
(I54
I18
I1
tp8
sVfollow
p9
(I72
I30
I2
tp10
sS'155221'
p11
(I102
I18
I1
tp12
sS'zone'
p13
(I120
I18
I1
tp14
sVharvest
p15
(I1573
I18
I1
tp16
sS'to'
p17
(I174
I56
I4
tp18
sS'340'
p19
(I230
I18
I1
tp20
sS'under'
p21
(I248
I31
I2
tp22
sS'348'
p23
(I279
I18
I1
tp24
sS'618'
p25
(I297
I18
I1
tp26
sVsunflowerse
p27
(I315
I18
I1
tp28
sS'1498'
p29
(I333
I18
I1
tp30
sS'ticket'
p31
(I351
I19
I1
tp32
sVlevel
p33
(I370
I30
I2
tp34
sV325i
p35
(I400
I18
I1
tp36
sS'099'
p37
(I5229
I18
I1
tp38
sS'bahia'
p39
(I418
I18
I1
tp40
sS'593'
p41
(I436
I18
I1
tp42
sS'crop'
p43
(I454
I30
I2
tp44
sS'192'
p45
(I484
I18
I1
tp46
sS'tex'
p47
(I502
I19
I1
tp48
sVrate
p49
(I521
I18
I1
tp50
sVcost
p51
(I539
I19
I1
tp52
sVport
p53
(I558
I18
I1
tp54
sS'cornsorghum'
p55
(I576
I18
I1
tp56
sVcurrenc
p57
(I612
I18
I1
tp58
sVcurrent
p59
(I630
I31
I2
tp60
sS'2380'
p61
(I661
I18
I1
tp62
sS'new'
p63
(I679
I18
I1
tp64
sS';'
p65
(I5528
I44
I3
tp66
sVinvolv
p67
(I5284
I19
I1
tp68
sVgener
p69
(I735
I19
I1
tp70
sS'445'
p71
(I754
I18
I1
tp72
sS'100'
p73
(I772
I30
I2
tp74
sS'106'
p75
(I6896
I18
I1
tp76
sVsinc
p77
(I820
I18
I1
tp78
sVconvert
p79
(I838
I18
I1
tp80
sS'aug'
p81
(I856
I18
I1
tp82
sS'32'
p83
(I874
I18
I1
tp84
sVtechnolog
p85
(I892
I19
I1
tp86
sS'35'
p87
(I911
I18
I1
tp88
sS'34'
p89
(I929
I19
I1
tp90
sVdri
p91
(I948
I18
I1
tp92
sVchang
p93
(I966
I19
I1
tp94
sS'york'
p95
(I3785
I18
I1
tp96
sVdepart
p97
(I1003
I18
I1
tp98
sS'apr'
p99
(I1021
I18
I1
tp100
sS'337'
p101
(I1039
I18
I1
tp102
sS'soybean'
p103
(I1057
I18
I1
tp104
sS'total'
p105
(I1075
I44
I3
tp106
sS'market'
p107
(I1119
I19
I1
tp108
sS'from'
p109
(I1138
I31
I2
tp110
sS'would'
p111
(I1169
I31
I2
tp112
sS'&'
p113
(I1200
I44
I3
tp114
sVregist
p115
(I1244
I18
I1
tp116
sS'by'
p117
(I9150
I18
I1
tp118
sS'few'
p119
(I1262
I18
I1
tp120
sS'doubt'
p121
(I1280
I18
I1
tp122
sS'call'
p123
(I1298
I18
I1
tp124
sVasset
p125
(I1316
I19
I1
tp126
sS'recommend'
p127
(I3389
I18
I1
tp128
sS'prev'
p129
(I1384
I18
I1
tp130
sS'midday'
p131
(I1402
I18
I1
tp132
sVcapit
p133
(I1420
I18
I1
tp134
sVregistr
p135
(I1438
I18
I1
tp136
sVshare
p137
(I1456
I31
I2
tp138
sVhundr
p139
(I1487
I18
I1
tp140
sS'90'
p141
(I1505
I18
I1
tp142
sVcompani
p143
(I1523
I31
I2
tp144
sVhold
p145
(I1554
I19
I1
tp146
sS'iii'
p147
(I138
I18
I1
tp148
sVrestor
p149
(I1591
I18
I1
tp150
sS'51482'
p151
(I1609
I18
I1
tp152
sS'v'
p153
(I1627
I18
I1
tp154
sVmeet
p155
(I1645
I18
I1
tp156
sS'dec'
p157
(I1663
I18
I1
tp158
sS'control'
p159
(I1681
I19
I1
tp160
sS'995'
p161
(I5389
I18
I1
tp162
sS'558'
p163
(I1719
I18
I1
tp164
sS'uruguay'
p165
(I1737
I18
I1
tp166
sS'554'
p167
(I1755
I18
I1
tp168
sS'comissaria'
p169
(I1773
I18
I1
tp170
sS'tax'
p171
(I1791
I19
I1
tp172
sVtag
p173
(I1810
I19
I1
tp174
sS'234'
p175
(I1829
I18
I1
tp176
sS'236'
p177
(I1847
I18
I1
tp178
sS'occur'
p179
(I1865
I19
I1
tp180
sVend
p181
(I1884
I18
I1
tp182
sVgrainoilse
p183
(I1902
I18
I1
tp184
sS'reuter'
p185
(I1920
I18
I1
tp186
sS'1'
p187
(I1938
I18
I1
tp188
sS'how'
p189
(I1956
I18
I1
tp190
sS'1750'
p191
(I3335
I18
I1
tp192
sS'1176'
p193
(I2005
I18
I1
tp194
sS'product'
p195
(I2023
I43
I3
tp196
sS'145'
p197
(I3456
I18
I1
tp198
sS'may'
p199
(I2084
I30
I2
tp200
sS'613'
p201
(I2114
I18
I1
tp202
sS'earlier'
p203
(I3731
I18
I1
tp204
sS'spot'
p205
(I2162
I18
I1
tp206
sS'615'
p207
(I2180
I18
I1
tp208
sVreflect
p209
(I2198
I18
I1
tp210
sS'4th'
p211
(I2216
I19
I1
tp212
sS'132'
p213
(I2235
I18
I1
tp214
sS'2375'
p215
(I3893
I18
I1
tp216
sVaverag
p217
(I2271
I18
I1
tp218
sS'1880'
p219
(I2289
I18
I1
tp220
sS'a'
p221
(I2307
I43
I3
tp222
sVcircumst
p223
(I2350
I19
I1
tp224
sVpractic
p225
(I2369
I18
I1
tp226
sS'light'
p227
(I2387
I18
I1
tp228
sVprocessor
p229
(I9327
I18
I1
tp230
sVdeposit
p231
(I2424
I19
I1
tp232
sVenter
p233
(I2443
I18
I1
tp234
sVexclus
p235
(I2461
I19
I1
tp236
sS'7182'
p237
(I2480
I18
I1
tp238
sVmake
p239
(I7647
I31
I2
tp240
sS'houston'
p241
(I2516
I19
I1
tp242
sS'help'
p243
(I2535
I19
I1
tp244
sS'over'
p245
(I2554
I18
I1
tp246
sVmove
p247
(I2572
I19
I1
tp248
sVapprov
p249
(I2591
I18
I1
tp250
sS'trade'
p251
(I2609
I18
I1
tp252
sVincreas
p253
(I1353
I31
I2
tp254
sS'130'
p255
(I2645
I18
I1
tp256
sS'through'
p257
(I2663
I18
I1
tp258
sVjunejuli
p259
(I7678
I18
I1
tp260
sS'135'
p261
(I2699
I18
I1
tp262
sS'still'
p263
(I2717
I18
I1
tp264
sS'50000'
p265
(I2735
I19
I1
tp266
sS'25'
p267
(I2754
I30
I2
tp268
sS'27'
p269
(I2784
I18
I1
tp270
sVlb
p271
(I2802
I18
I1
tp272
sS'fit'
p273
(I2820
I18
I1
tp274
sS'23'
p275
(I2838
I30
I2
tp276
sS'temporao'
p277
(I2868
I18
I1
tp278
sS'28'
p279
(I2886
I18
I1
tp280
sS'pct'
p281
(I2904
I19
I1
tp282
sVmaiz
p283
(I2923
I18
I1
tp284
sS'late'
p285
(I2941
I18
I1
tp286
sS'lt'
p287
(I2959
I44
I3
tp288
sS'2400'
p289
(I3003
I18
I1
tp290
sVfarmer
p291
(I3021
I18
I1
tp292
sS'argentina'
p293
(I3039
I18
I1
tp294
sS'good'
p295
(I3057
I18
I1
tp296
sS'dlrsbusorghum'
p297
(I3075
I18
I1
tp298
sVnation
p299
(I3093
I18
I1
tp300
sVconsign
p301
(I3111
I18
I1
tp302
sS'not'
p303
(I3129
I44
I3
tp304
sS'now'
p305
(I3173
I18
I1
tp306
sS'bread'
p307
(I3191
I18
I1
tp308
sVname
p309
(I3209
I18
I1
tp310
sVfebruari
p311
(I3227
I42
I3
tp312
sS'4480'
p313
(I3269
I18
I1
tp314
sVjanuari
p315
(I3287
I30
I2
tp316
sS'827'
p317
(I594
I18
I1
tp318
sS'stock'
p319
(I1974
I31
I2
tp320
sS'374'
p321
(I3353
I18
I1
tp322
sVmean
p323
(I3371
I18
I1
tp324
sVcontinu
p325
(I3407
I31
I2
tp326
sVsubproduct
p327
(I3438
I18
I1
tp328
sS'mar'
p329
(I2066
I18
I1
tp330
sVexpect
p331
(I3474
I18
I1
tp332
sS'year'
p333
(I3492
I44
I3
tp334
sS'superior+'
p335
(I3536
I18
I1
tp336
sS'26924'
p337
(I3554
I18
I1
tp338
sVcommiss
p339
(I3572
I18
I1
tp340
sS'matrix'
p341
(I3608
I19
I1
tp342
sS'cwt'
p343
(I3627
I18
I1
tp344
sS'4723'
p345
(I3645
I19
I1
tp346
sS'barley'
p347
(I3664
I18
I1
tp348
sS'shipment'
p349
(I3682
I30
I2
tp350
sVextraordinari
p351
(I3712
I19
I1
tp352
sS'after'
p353
(I2132
I30
I2
tp354
sS'581'
p355
(I3749
I18
I1
tp356
sS'245'
p357
(I3767
I18
I1
tp358
sS'240'
p359
(I985
I18
I1
tp360
sVreleas
p361
(I3803
I18
I1
tp362
sVshipper
p363
(I3821
I18
I1
tp364
sVarea
p365
(I9485
I18
I1
tp366
sS'but'
p367
(I9823
I19
I1
tp368
sS'1661'
p369
(I3857
I18
I1
tp370
sS'1009'
p371
(I3875
I18
I1
tp372
sS'8720'
p373
(I2253
I18
I1
tp374
sVtechnolgi
p375
(I3911
I19
I1
tp376
sVoper
p377
(I3930
I19
I1
tp378
sVcarri
p379
(I3949
I19
I1
tp380
sS'451'
p381
(I3968
I18
I1
tp382
sVqualiti
p383
(I3986
I18
I1
tp384
sS'one'
p385
(I4004
I19
I1
tp386
sS'1875'
p387
(I4023
I18
I1
tp388
sS'1870'
p389
(I4041
I18
I1
tp390
sVvote
p391
(I4059
I18
I1
tp392
sS'4345'
p393
(I4077
I18
I1
tp394
sS'open'
p395
(I4095
I18
I1
tp396
sS'4340'
p397
(I4113
I18
I1
tp398
sS'feedgrain'
p399
(I4131
I18
I1
tp400
sVsystem
p401
(I4149
I19
I1
tp402
sS'their'
p403
(I4168
I30
I2
tp404
sVcumul
p405
(I4198
I18
I1
tp406
sVtermin
p407
(I4216
I19
I1
tp408
sS'final'
p409
(I4235
I18
I1
tp410
sS'ratex'
p411
(I4253
I18
I1
tp412
sVtwoforon
p413
(I4271
I18
I1
tp414
sS'that'
p415
(I4289
I18
I1
tp416
sS'season'
p417
(I4307
I18
I1
tp418
sVjuli
p419
(I4325
I30
I2
tp420
sS'part'
p421
(I4355
I31
I2
tp422
sS'5102'
p423
(I4386
I19
I1
tp424
sS'11'
p425
(I4405
I18
I1
tp426
sS'12'
p427
(I4423
I18
I1
tp428
sS'15'
p429
(I4441
I18
I1
tp430
sS'19'
p431
(I4459
I18
I1
tp432
sS'cbco'
p433
(I4477
I19
I1
tp434
sVshower
p435
(I4496
I18
I1
tp436
sS'were'
p437
(I4514
I43
I3
tp438
sVprospect
p439
(I4557
I18
I1
tp440
sVdeliveri
p441
(I9694
I19
I1
tp442
sVcomput
p443
(I4593
I19
I1
tp444
sVani
p445
(I4612
I19
I1
tp446
sS'have'
p447
(I4631
I30
I2
tp448
sVdeliv
p449
(I4661
I18
I1
tp450
sVseem
p451
(I4679
I18
I1
tp452
sVsell
p453
(I4697
I18
I1
tp454
sS'lugano'
p455
(I4715
I19
I1
tp456
sVdificulti
p457
(I9751
I18
I1
tp458
sS'fiveday'
p459
(I4753
I18
I1
tp460
sS'note'
p461
(I4771
I19
I1
tp462
sS'also'
p463
(I4790
I55
I4
tp464
sS'which'
p465
(I4845
I18
I1
tp466
sS'325'
p467
(I4863
I18
I1
tp468
sS'329'
p469
(I4881
I18
I1
tp470
sS'200'
p471
(I4899
I18
I1
tp472
sVprinter
p473
(I4917
I19
I1
tp474
sS'204'
p475
(I4936
I18
I1
tp476
sS'normal'
p477
(I4954
I18
I1
tp478
sVprice
p479
(I4972
I43
I3
tp480
sS'75'
p481
(I5015
I19
I1
tp482
sS'plan'
p483
(I5034
I19
I1
tp484
sS'70'
p485
(I5053
I18
I1
tp486
sS'drought'
p487
(I5071
I18
I1
tp488
sS'79'
p489
(I5089
I18
I1
tp490
sVallevi
p491
(I5107
I18
I1
tp492
sVcover
p493
(I5125
I18
I1
tp494
sVsale
p495
(I5143
I31
I2
tp496
sVbracket
p497
(I5174
I18
I1
tp498
sVworldwid
p499
(I7346
I19
I1
tp500
sS'dot'
p501
(I5192
I19
I1
tp502
sVhumid
p503
(I5211
I18
I1
tp504
sS'show'
p505
(I156
I18
I1
tp506
sVcruzado
p507
(I5247
I18
I1
tp508
sS'2858000'
p509
(I5265
I19
I1
tp510
sS'impact'
p511
(I716
I19
I1
tp512
sVonli
p513
(I5303
I18
I1
tp514
sVacquir
p515
(I5321
I19
I1
tp516
sS'('
p517
(I5340
I31
I2
tp518
sS'oct'
p519
(I5371
I18
I1
tp520
sS'200000'
p521
(I1700
I19
I1
tp522
sVargentin
p523
(I5407
I18
I1
tp524
sS'bean'
p525
(I5425
I18
I1
tp526
sS'124'
p527
(I5443
I18
I1
tp528
sS'125'
p529
(I5461
I31
I2
tp530
sS'198586'
p531
(I5492
I18
I1
tp532
sVbuyer
p533
(I5510
I18
I1
tp534
sS'net'
p535
(I697
I19
I1
tp536
sS'shr'
p537
(I5572
I19
I1
tp538
sVreluct
p539
(I5591
I18
I1
tp540
sS'aprilmay'
p541
(I5609
I18
I1
tp542
sS'1824'
p543
(I5627
I18
I1
tp544
sS'4400'
p545
(I5645
I18
I1
tp546
sS'wheatbarley'
p547
(I5663
I18
I1
tp548
sS'4403'
p549
(I5681
I19
I1
tp550
sVbag
p551
(I5700
I18
I1
tp552
sS'common'
p553
(I5718
I31
I2
tp554
sS'switzerland'
p555
(I5749
I19
I1
tp556
sS'x'
p557
(I5768
I18
I1
tp558
sS'view'
p559
(I5786
I18
I1
tp560
sVcertif
p561
(I5804
I18
I1
tp562
sS'qtr'
p563
(I5822
I19
I1
tp564
sS'liquor'
p565
(I5841
I18
I1
tp566
sVkilo
p567
(I8194
I18
I1
tp568
sS'315'
p569
(I5877
I18
I1
tp570
sS'039'
p571
(I5895
I18
I1
tp572
sS'3272'
p573
(I5913
I19
I1
tp574
sS'are'
p575
(I5932
I31
I2
tp576
sVreserv
p577
(I5963
I18
I1
tp578
sS'augsept'
p579
(I5981
I18
I1
tp580
sS'said'
p581
(I5999
I43
I3
tp582
sS'sunoil'
p583
(I6042
I18
I1
tp584
sS'review'
p585
(I6060
I18
I1
tp586
sVlabel
p587
(I6078
I19
I1
tp588
sVdlr
p589
(I6097
I45
I3
tp590
sVfigur
p591
(I6142
I30
I2
tp592
sVoutstand
p593
(I6172
I19
I1
tp594
sVwa
p595
(I6191
I18
I1
tp596
sS'sold'
p597
(I6209
I31
I2
tp598
sS'16558'
p599
(I6240
I18
I1
tp600
sS'arroba'
p601
(I6258
I18
I1
tp602
sS'octdec'
p603
(I6276
I18
I1
tp604
sS'20'
p605
(I6294
I18
I1
tp606
sVcome
p607
(I6312
I18
I1
tp608
sVaddit
p609
(I6330
I19
I1
tp610
sS'785'
p611
(I6349
I18
I1
tp612
sS'1646'
p613
(I6367
I18
I1
tp614
sS'last'
p615
(I6385
I18
I1
tp616
sS'22'
p617
(I6403
I18
I1
tp618
sVlicense
p619
(I6421
I19
I1
tp620
sS'annual'
p621
(I6440
I18
I1
tp622
sS'equal'
p623
(I6458
I19
I1
tp624
sS'against'
p625
(I6477
I18
I1
tp626
sVnearbi
p627
(I6495
I18
I1
tp628
sS'april'
p629
(I6513
I18
I1
tp630
sS'grain'
p631
(I7714
I30
I2
tp632
sVydlr
p633
(I6549
I18
I1
tp634
sVimprov
p635
(I6567
I31
I2
tp636
sVcarniv
p637
(I6598
I18
I1
tp638
sS'and'
p639
(I6616
I56
I4
tp640
sS'ch'
p641
(I6672
I18
I1
tp642
sVloan
p643
(I6690
I31
I2
tp644
sS'period'
p645
(I6721
I18
I1
tp646
sVtonn
p647
(I6739
I30
I2
tp648
sS'60'
p649
(I6769
I18
I1
tp650
sS'62'
p651
(I6787
I18
I1
tp652
sS'63'
p653
(I6805
I18
I1
tp654
sS'64'
p655
(I6823
I18
I1
tp656
sS'68'
p657
(I6841
I18
I1
tp658
sS'throughout'
p659
(I6859
I18
I1
tp660
sVct
p661
(I6877
I19
I1
tp662
sS'4350'
p663
(I802
I18
I1
tp664
sS'been'
p665
(I6914
I18
I1
tp666
sS'4351'
p667
(I6932
I18
I1
tp668
sS'much'
p669
(I6950
I18
I1
tp670
sVdestin
p671
(I7426
I18
I1
tp672
sS'certain'
p673
(I10225
I19
I1
tp674
sS'>'
p675
(I6986
I44
I3
tp676
sS'champion'
p677
(I7030
I18
I1
tp678
sS'465'
p679
(I7048
I18
I1
tp680
sS'thousand'
p681
(I7066
I30
I2
tp682
sS'+bahia'
p683
(I7096
I18
I1
tp684
sS'165'
p685
(I7114
I18
I1
tp686
sS'cpml'
p687
(I7132
I19
I1
tp688
sS'those'
p689
(I7151
I18
I1
tp690
sS'mln'
p691
(I7169
I56
I4
tp692
sS'will'
p693
(I7225
I18
I1
tp694
sS'1453'
p695
(I7243
I18
I1
tp696
sVreport
p697
(I7261
I18
I1
tp698
sS'sorghum'
p699
(I7279
I30
I2
tp700
sVpurchas
p701
(I7309
I19
I1
tp702
sS'almost'
p703
(I7328
I18
I1
tp704
sS'vi'
p705
(I1335
I18
I1
tp706
sS'is'
p707
(I7365
I18
I1
tp708
sVit
p709
(I7383
I43
I3
tp710
sS'iv'
p711
(I6531
I18
I1
tp712
sS'ii'
p713
(I7444
I18
I1
tp714
sS'vs'
p715
(I7462
I19
I1
tp716
sS'in'
p717
(I7481
I42
I3
tp718
sVavg
p719
(I7523
I18
I1
tp720
sS'if'
p721
(I7541
I19
I1
tp722
sS'sedio'
p723
(I7560
I19
I1
tp724
sVauthor
p725
(I7579
I18
I1
tp726
sS')'
p727
(I7597
I31
I2
tp728
sS'pay'
p729
(I7628
I19
I1
tp730
sS'874'
p731
(I2498
I18
I1
tp732
sS'same'
p733
(I2681
I18
I1
tp734
sS'split'
p735
(I7696
I18
I1
tp736
sS'198788'
p737
(I7744
I18
I1
tp738
sVcomplet
p739
(I7762
I19
I1
tp740
sS'week'
p741
(I7781
I18
I1
tp742
sS'oil'
p743
(I7799
I18
I1
tp744
sS'nil'
p745
(I7817
I18
I1
tp746
sVhand
p747
(I7835
I18
I1
tp748
sVdirector
p749
(I7853
I18
I1
tp750
sS'4797'
p751
(I7871
I19
I1
tp752
sS'recent'
p753
(I7890
I18
I1
tp754
sS'butter'
p755
(I7908
I18
I1
tp756
sS'lower'
p757
(I7926
I18
I1
tp758
sS'i'
p759
(I7944
I18
I1
tp760
sS'808'
p761
(I7962
I18
I1
tp762
sVthi
p763
(I7980
I18
I1
tp764
sS'350'
p765
(I7998
I18
I1
tp766
sS'the'
p767
(I8016
I69
I5
tp768
sS'woodco'
p769
(I8085
I19
I1
tp770
sS'211'
p771
(I8104
I18
I1
tp772
sS'1780'
p773
(I8122
I18
I1
tp774
sS'761'
p775
(I8140
I18
I1
tp776
sVobtain
p777
(I8158
I18
I1
tp778
sVweekli
p779
(I8176
I18
I1
tp780
sS'nanot'
p781
(I5859
I18
I1
tp782
sS'middlemen'
p783
(I8212
I18
I1
tp784
sS'2325'
p785
(I8230
I18
I1
tp786
sS'rose'
p787
(I8248
I18
I1
tp788
sS'smith'
p789
(I8266
I18
I1
tp790
sS'1073'
p791
(I8284
I18
I1
tp792
sVbook
p793
(I10574
I18
I1
tp794
sS'board'
p795
(I8320
I30
I2
tp796
sVexercis
p797
(I8350
I19
I1
tp798
sS'natl'
p799
(I8369
I18
I1
tp800
sVoilse
p801
(I8387
I18
I1
tp802
sVwarrant
p803
(I8405
I19
I1
tp804
sVearli
p805
(I8424
I18
I1
tp806
sS'march'
p807
(I8442
I30
I2
tp808
sS'around'
p809
(I8472
I18
I1
tp810
sVarriv
p811
(I8490
I18
I1
tp812
sS'five'
p813
(I8508
I44
I3
tp814
sS'265'
p815
(I8552
I18
I1
tp816
sS'2992'
p817
(I8570
I19
I1
tp818
sS'536'
p819
(I8589
I18
I1
tp820
sS'37'
p821
(I8607
I18
I1
tp822
sVexceed
p823
(I8625
I19
I1
tp824
sS'right'
p825
(I8644
I19
I1
tp826
sS'old'
p827
(I8663
I18
I1
tp828
sVsharehold
p829
(I8681
I18
I1
tp830
sS'some'
p831
(I8699
I18
I1
tp832
sVexport
p833
(I8717
I30
I2
tp834
sS'linoil'
p835
(I8747
I18
I1
tp836
sS'119'
p837
(I8765
I19
I1
tp838
sS'251'
p839
(I8784
I18
I1
tp840
sS'for'
p841
(I8802
I68
I5
tp842
sS'1850'
p843
(I8870
I18
I1
tp844
sS'4415'
p845
(I8888
I18
I1
tp846
sS'per'
p847
(I8906
I56
I4
tp848
sVestim
p849
(I8962
I18
I1
tp850
sS'fob'
p851
(I8980
I18
I1
tp852
sVcondit
p853
(I8998
I19
I1
tp854
sS'255'
p855
(I9017
I18
I1
tp856
sS'be'
p857
(I9035
I31
I2
tp858
sS'wheat'
p859
(I9066
I30
I2
tp860
sS'corn'
p861
(I9096
I18
I1
tp862
sS'although'
p863
(I9114
I18
I1
tp864
sS'feb'
p865
(I9132
I18
I1
tp866
sS'went'
p867
(I3317
I18
I1
tp868
sS'stage'
p869
(I9168
I18
I1
tp870
sS'on'
p871
(I9186
I18
I1
tp872
sS'of'
p873
(I9204
I69
I5
tp874
sVfarmerown
p875
(I9273
I18
I1
tp876
sVstand
p877
(I9291
I18
I1
tp878
sS'sept'
p879
(I9309
I18
I1
tp880
sS'or'
p881
(I2405
I19
I1
tp882
sVroutin
p883
(I9345
I18
I1
tp884
sS'cocoa'
p885
(I9363
I18
I1
tp886
sVensur
p887
(I9381
I19
I1
tp888
sS'1986'
p889
(I9400
I30
I2
tp890
sS'1987'
p891
(I9430
I18
I1
tp892
sS'1984'
p893
(I9448
I18
I1
tp894
sS'1985'
p895
(I9466
I19
I1
tp896
sS'1981'
p897
(I3839
I18
I1
tp898
sS'there'
p899
(I9503
I18
I1
tp900
sVagricultur
p901
(I9521
I18
I1
tp902
sVavail
p903
(I9539
I43
I3
tp904
sVinclud
p905
(I9582
I44
I3
tp906
sS'brazilian'
p907
(I9626
I18
I1
tp908
sS'forward'
p909
(I9644
I19
I1
tp910
sS':'
p911
(I9663
I31
I2
tp912
sS'753'
p913
(I4575
I18
I1
tp914
sS'buy'
p915
(I9713
I19
I1
tp916
sVreorgan
p917
(I9732
I19
I1
tp918
sVform
p919
(I4734
I19
I1
tp920
sS'offer'
p921
(I9769
I18
I1
tp922
sS'6'
p923
(I9787
I18
I1
tp924
sS'jun'
p925
(I9805
I18
I1
tp926
sS'jul'
p927
(I3590
I18
I1
tp928
sS'41610'
p929
(I9842
I18
I1
tp930
sS'gain'
p931
(I9860
I19
I1
tp932
sS'2185'
p933
(I9879
I18
I1
tp934
sS'228'
p935
(I9897
I18
I1
tp936
sS'227'
p937
(I9915
I18
I1
tp938
sVha
p939
(I9933
I31
I2
tp940
sS'with'
p941
(I9964
I18
I1
tp942
sS'made'
p943
(I9982
I18
I1
tp944
sVveget
p945
(I10000
I18
I1
tp946
sS'up'
p947
(I10018
I19
I1
tp948
sS'us'
p949
(I10037
I30
I2
tp950
sS'record'
p951
(I10067
I18
I1
tp952
sS'807000'
p953
(I10085
I19
I1
tp954
sVlimit
p955
(I10104
I18
I1
tp956
sS'cake'
p957
(I10122
I18
I1
tp958
sS'x1986'
p959
(I10140
I18
I1
tp960
sS'150'
p961
(I10158
I31
I2
tp962
sS'156'
p963
(I10189
I18
I1
tp964
sS'159'
p965
(I10207
I18
I1
tp966
sVcovert
p967
(I6968
I18
I1
tp968
sS'marchapril'
p969
(I10244
I18
I1
tp970
sS'an'
p971
(I10262
I43
I3
tp972
sS'as'
p973
(I10305
I54
I4
tp974
sS'4450'
p975
(I10359
I18
I1
tp976
sS'held'
p977
(I2627
I18
I1
tp978
sS'at'
p979
(I10377
I44
I3
tp980
sS'399'
p981
(I10421
I18
I1
tp982
sS'inc'
p983
(I10439
I44
I3
tp984
sS'again'
p985
(I10483
I18
I1
tp986
sS'na'
p987
(I10501
I18
I1
tp988
sS'45'
p989
(I10519
I18
I1
tp990
sVdetail
p991
(I10537
I18
I1
tp992
sS'40'
p993
(I10555
I19
I1
tp994
sVoat
p995
(I8302
I18
I1
tp996
sVfutur
p997
(I10592
I31
I2
tp998
sVlinse
p999
(I10623
I18
I1
tp1000
sS'1118'
p1001
(I10641
I18
I1
tp1002
sS'nv'
p1003
(I10659
I19
I1
tp1004
sVmatur
p1005
(I10678
I18
I1
tp1006
sS"'s"
p1007
(I10696
I19
I1
tp1008
sS'198687'
p1009
(I10715
I30
I2
tp1010
sS'132000'
p1011
(I10745
I19
I1
tp1012
sS'cobanco'
p1013
(I10764
I19
I1
tp1014
sS'487'
p1015
(I10783
I18
I1
tp1016
sS'486'
p1017
(I10801
I18
I1
tp1018
sS'480'
p1019
(I10819
I18
I1
tp1020
sVexperienc
p1021
(I10837
I18
I1
tp1022
sVtime
p1023
(I10855
I31
I2
tp1024
s.