(lp0
(I1
I1
tp1
a.(lp0
(I6
I1
tp1
a.(lp0
(I1
I1
tp1
a.(lp0
(I1
I1
tp1
a.(lp0
(I5
I1
tp1
a(I6
I1
tp2
a.(lp0
(I1
I1
tp1
a.(lp0
(I1
I1
tp1
a.(lp0
(I5
I1
tp1
a.(lp0
(I6
I2
tp1
a.(lp0
(I1
I14
tp1
a(I10
I9
tp2
a(I9
I3
tp3
a(I6
I2
tp4
a.(lp0
(I1
I1
tp1
a.(lp0
(I1
I1
tp1
a(I10
I1
tp2
a.(lp0
(I6
I1
tp1
a.(lp0
(I6
I1
tp1
a.(lp0
(I6
I2
tp1
a.(lp0
(I6
I1
tp1
a.(lp0
(I10
I1
tp1
a.(lp0
(I5
I5
tp1
a(I1
I1
tp2
a.(lp0
(I5
I1
tp1
a.(lp0
(I1
I4
tp1
a.(lp0
(I1
I1
tp1
a.(lp0
(I1
I5
tp1
a(I6
I1
tp2
a.(lp0
(I5
I1
tp1
a.(lp0
(I10
I1
tp1
a.(lp0
(I5
I2
tp1
a.(lp0
(I10
I1
tp1
a.(lp0
(I1
I3
tp1
a.(lp0
(I5
I1
tp1
a.(lp0
(I6
I1
tp1
a.(lp0
(I1
I2
tp1
a.(lp0
(I1
I1
tp1
a(I10
I1
tp2
a.(lp0
(I1
I1
tp1
a.(lp0
(I1
I9
tp1
a.(lp0
(I11
I2
tp1
a.(lp0
(I10
I1
tp1
a.(lp0
(I10
I1
tp1
a.(lp0
(I5
I1
tp1
a.(lp0
(I6
I2
tp1
a(I5
I1
tp2
a.(lp0
(I1
I1
tp1
a.(lp0
(I1
I1
tp1
a.(lp0
(I1
I1
tp1
a.(lp0
(I1
I1
tp1
a.(lp0
(I6
I1
tp1
a.(lp0
(I10
I2
tp1
a.(lp0
(I1
I1
tp1
a.(lp0
(I11
I1
tp1
a.(lp0
(I1
I1
tp1
a.(lp0
(I10
I1
tp1
a.(lp0
(I5
I1
tp1
a.(lp0
(I5
I1
tp1
a.(lp0
(I6
I7
tp1
a.(lp0
(I6
I1
tp1
a.(lp0
(I6
I3
tp1
a.(lp0
(I6
I13
tp1
a(I1
I3
tp2
a(I10
I1
tp3
a.(lp0
(I10
I1
tp1
a.(lp0
(I9
I1
tp1
a(I11
I1
tp2
a.(lp0
(I10
I3
tp1
a(I1
I1
tp2
a.(lp0
(I10
I3
tp1
a(I9
I1
tp2
a(I11
I1
tp3
a.(lp0
(I1
I1
tp1
a.(lp0
(I1
I1
tp1
a.(lp0
(I1
I2
tp1
a.(lp0
(I5
I2
tp1
a.(lp0
(I11
I1
tp1
a.(lp0
(I5
I2
tp1
a.(lp0
(I9
I1
tp1
a(I10
I1
tp2
a.(lp0
(I6
I8
tp1
a.(lp0
(I1
I1
tp1
a.(lp0
(I9
I1
tp1
a.(lp0
(I6
I5
tp1
a.(lp0
(I10
I5
tp1
a(I9
I2
tp2
a.(lp0
(I1
I1
tp1
a.(lp0
(I6
I1
tp1
a.(lp0
(I10
I4
tp1
a(I9
I1
tp2
a.(lp0
(I10
I1
tp1
a.(lp0
(I1
I1
tp1
a.(lp0
(I1
I1
tp1
a.(lp0
(I5
I1
tp1
a.(lp0
(I5
I6
tp1
a.(lp0
(I9
I1
tp1
a.(lp0
(I1
I3
tp1
a.(lp0
(I10
I1
tp1
a.(lp0
(I10
I2
tp1
a.(lp0
(I6
I1
tp1
a.(lp0
(I1
I2
tp1
a.(lp0
(I5
I1
tp1
a.(lp0
(I1
I5
tp1
a.(lp0
(I11
I1
tp1
a.(lp0
(I10
I1
tp1
a.(lp0
(I5
I1
tp1
a.(lp0
(I6
I1
tp1
a.(lp0
(I10
I1
tp1
a.(lp0
(I1
I3
tp1
a.(lp0
(I6
I1
tp1
a.(lp0
(I6
I1
tp1
a.(lp0
(I9
I1
tp1
a.(lp0
(I1
I2
tp1
a.(lp0
(I9
I3
tp1
a(I10
I3
tp2
a.(lp0
(I6
I1
tp1
a.(lp0
(I9
I2
tp1
a(I10
I1
tp2
a(I6
I1
tp3
a.(lp0
(I6
I7
tp1
a.(lp0
(I6
I4
tp1
a(I1
I2
tp2
a.(lp0
(I1
I1
tp1
a.(lp0
(I5
I5
tp1
a(I1
I1
tp2
a.(lp0
(I1
I1
tp1
a.(lp0
(I6
I1
tp1
a.(lp0
(I5
I1
tp1
a.(lp0
(I11
I1
tp1
a.(lp0
(I6
I1
tp1
a.(lp0
(I6
I1
tp1
a.(lp0
(I5
I2
tp1
a.(lp0
(I1
I2
tp1
a.(lp0
(I1
I3
tp1
a(I10
I2
tp2
a(I9
I1
tp3
a.(lp0
(I10
I1
tp1
a.(lp0
(I1
I1
tp1
a.(lp0
(I1
I1
tp1
a.(lp0
(I11
I1
tp1
a.(lp0
(I11
I1
tp1
a.(lp0
(I5
I2
tp1
a.(lp0
(I10
I1
tp1
a.(lp0
(I5
I1
tp1
a.(lp0
(I6
I1
tp1
a.(lp0
(I10
I1
tp1
a.(lp0
(I10
I1
tp1
a.(lp0
(I1
I1
tp1
a.(lp0
(I10
I1
tp1
a.(lp0
(I9
I2
tp1
a.(lp0
(I1
I1
tp1
a.(lp0
(I1
I1
tp1
a.(lp0
(I6
I1
tp1
a.(lp0
(I5
I1
tp1
a.(lp0
(I1
I1
tp1
a.(lp0
(I5
I1
tp1
a.(lp0
(I1
I3
tp1
a.(lp0
(I10
I1
tp1
a.(lp0
(I9
I1
tp1
a(I5
I1
tp2
a.(lp0
(I1
I1
tp1
a.(lp0
(I5
I1
tp1
a.(lp0
(I1
I1
tp1
a.(lp0
(I9
I1
tp1
a(I5
I1
tp2
a.(lp0
(I1
I2
tp1
a.(lp0
(I1
I1
tp1
a.(lp0
(I10
I2
tp1
a.(lp0
(I6
I1
tp1
a.(lp0
(I1
I1
tp1
a.(lp0
(I10
I3
tp1
a(I9
I1
tp2
a(I11
I1
tp3
a.(lp0
(I1
I1
tp1
a.(lp0
(I1
I2
tp1
a.(lp0
(I1
I1
tp1
a.(lp0
(I1
I1
tp1
a.(lp0
(I5
I1
tp1
a.(lp0
(I5
I2
tp1
a.(lp0
(I1
I2
tp1
a.(lp0
(I1
I1
tp1
a(I10
I1
tp2
a(I11
I1
tp3
a.(lp0
(I1
I1
tp1
a.(lp0
(I6
I1
tp1
a.(lp0
(I1
I1
tp1
a.(lp0
(I1
I3
tp1
a(I6
I2
tp2
a(I5
I1
tp3
a.(lp0
(I1
I1
tp1
a.(lp0
(I1
I1
tp1
a(I5
I1
tp2
a.(lp0
(I1
I1
tp1
a.(lp0
(I1
I1
tp1
a.(lp0
(I6
I1
tp1
a.(lp0
(I1
I1
tp1
a.(lp0
(I9
I1
tp1
a.(lp0
(I1
I1
tp1
a(I10
I1
tp2
a.(lp0
(I6
I2
tp1
a.(lp0
(I6
I1
tp1
a.(lp0
(I1
I1
tp1
a.(lp0
(I1
I2
tp1
a(I11
I2
tp2
a(I10
I1
tp3
a.(lp0
(I1
I1
tp1
a.(lp0
(I6
I1
tp1
a.(lp0
(I1
I1
tp1
a.(lp0
(I6
I1
tp1
a.(lp0
(I10
I1
tp1
a.(lp0
(I5
I2
tp1
a.(lp0
(I11
I1
tp1
a.(lp0
(I5
I1
tp1
a.(lp0
(I1
I2
tp1
a(I6
I1
tp2
a.(lp0
(I11
I1
tp1
a.(lp0
(I1
I1
tp1
a.(lp0
(I1
I1
tp1
a.(lp0
(I6
I1
tp1
a.(lp0
(I1
I8
tp1
a.(lp0
(I5
I2
tp1
a.(lp0
(I1
I2
tp1
a.(lp0
(I5
I2
tp1
a.(lp0
(I6
I1
tp1
a.(lp0
(I6
I1
tp1
a.(lp0
(I1
I1
tp1
a.(lp0
(I10
I1
tp1
a.(lp0
(I10
I1
tp1
a.(lp0
(I11
I1
tp1
a.(lp0
(I6
I1
tp1
a.(lp0
(I1
I1
tp1
a.(lp0
(I10
I1
tp1
a.(lp0
(I1
I1
tp1
a.(lp0
(I1
I1
tp1
a.(lp0
(I9
I1
tp1
a.(lp0
(I1
I1
tp1
a.(lp0
(I1
I2
tp1
a.(lp0
(I1
I1
tp1
a.(lp0
(I5
I1
tp1
a.(lp0
(I10
I2
tp1
a.(lp0
(I1
I1
tp1
a(I6
I1
tp2
a.(lp0
(I1
I1
tp1
a.(lp0
(I10
I7
tp1
a.(lp0
(I1
I1
tp1
a.(lp0
(I5
I2
tp1
a.(lp0
(I9
I1
tp1
a.(lp0
(I1
I1
tp1
a.(lp0
(I1
I1
tp1
a.(lp0
(I1
I2
tp1
a(I5
I1
tp2
a.(lp0
(I1
I1
tp1
a(I10
I1
tp2
a.(lp0
(I11
I1
tp1
a.(lp0
(I6
I1
tp1
a.(lp0
(I6
I1
tp1
a.(lp0
(I1
I1
tp1
a.(lp0
(I5
I1
tp1
a.(lp0
(I11
I1
tp1
a.(lp0
(I1
I1
tp1
a.(lp0
(I1
I9
tp1
a(I6
I2
tp2
a(I10
I1
tp3
a.(lp0
(I1
I1
tp1
a.(lp0
(I1
I1
tp1
a.(lp0
(I10
I7
tp1
a.(lp0
(I10
I1
tp1
a.(lp0
(I1
I2
tp1
a(I5
I1
tp2
a.(lp0
(I1
I1
tp1
a.(lp0
(I1
I1
tp1
a.(lp0
(I1
I1
tp1
a.(lp0
(I10
I1
tp1
a.(lp0
(I10
I1
tp1
a.(lp0
(I5
I1
tp1
a.(lp0
(I11
I1
tp1
a.(lp0
(I10
I2
tp1
a(I1
I1
tp2
a(I6
I1
tp3
a(I9
I1
tp4
a.(lp0
(I1
I1
tp1
a.(lp0
(I5
I1
tp1
a.(lp0
(I6
I1
tp1
a.(lp0
(I6
I3
tp1
a.(lp0
(I10
I1
tp1
a.(lp0
(I6
I1
tp1
a.(lp0
(I1
I1
tp1
a.(lp0
(I5
I6
tp1
a(I10
I3
tp2
a(I1
I1
tp3
a.(lp0
(I10
I1
tp1
a.(lp0
(I10
I1
tp1
a.(lp0
(I6
I1
tp1
a.(lp0
(I1
I1
tp1
a.(lp0
(I6
I1
tp1
a.(lp0
(I1
I1
tp1
a.(lp0
(I5
I1
tp1
a.(lp0
(I1
I7
tp1
a(I10
I2
tp2
a.(lp0
(I6
I1
tp1
a.(lp0
(I10
I1
tp1
a.(lp0
(I1
I1
tp1
a.(lp0
(I5
I1
tp1
a.(lp0
(I1
I1
tp1
a.(lp0
(I11
I1
tp1
a.(lp0
(I10
I1
tp1
a.(lp0
(I1
I1
tp1
a.(lp0
(I10
I1
tp1
a.(lp0
(I6
I12
tp1
a(I5
I2
tp2
a.(lp0
(I5
I1
tp1
a.(lp0
(I1
I1
tp1
a.(lp0
(I6
I2
tp1
a.(lp0
(I1
I2
tp1
a.(lp0
(I5
I1
tp1
a.(lp0
(I1
I3
tp1
a(I10
I1
tp2
a.(lp0
(I6
I1
tp1
a.(lp0
(I1
I1
tp1
a.(lp0
(I10
I3
tp1
a(I9
I1
tp2
a(I11
I1
tp3
a.(lp0
(I11
I2
tp1
a.(lp0
(I1
I1
tp1
a.(lp0
(I1
I1
tp1
a.(lp0
(I6
I1
tp1
a.(lp0
(I1
I1
tp1
a.(lp0
(I5
I1
tp1
a.(lp0
(I11
I1
tp1
a.(lp0
(I1
I5
tp1
a.(lp0
(I10
I3
tp1
a(I9
I1
tp2
a.(lp0
(I10
I1
tp1
a.(lp0
(I5
I1
tp1
a.(lp0
(I1
I1
tp1
a.(lp0
(I1
I1
tp1
a.(lp0
(I11
I1
tp1
a.(lp0
(I1
I1
tp1
a.(lp0
(I5
I1
tp1
a.(lp0
(I5
I2
tp1
a.(lp0
(I1
I1
tp1
a.(lp0
(I11
I1
tp1
a.(lp0
(I1
I5
tp1
a(I10
I1
tp2
a.(lp0
(I5
I3
tp1
a.(lp0
(I1
I3
tp1
a.(lp0
(I10
I7
tp1
a(I1
I5
tp2
a(I9
I2
tp3
a.(lp0
(I6
I1
tp1
a.(lp0
(I1
I2
tp1
a.(lp0
(I10
I1
tp1
a.(lp0
(I1
I14
tp1
a(I10
I4
tp2
a(I11
I2
tp3
a.(lp0
(I1
I2
tp1
a(I6
I1
tp2
a.(lp0
(I10
I1
tp1
a.(lp0
(I1
I1
tp1
a.(lp0
(I1
I2
tp1
a(I10
I1
tp2
a.(lp0
(I6
I1
tp1
a.(lp0
(I1
I1
tp1
a.(lp0
(I1
I3
tp1
a.(lp0
(I6
I2
tp1
a.(lp0
(I1
I2
tp1
a.(lp0
(I10
I2
tp1
a.(lp0
(I1
I2
tp1
a.(lp0
(I6
I1
tp1
a.(lp0
(I1
I1
tp1
a.(lp0
(I1
I1
tp1
a.(lp0
(I10
I1
tp1
a.(lp0
(I9
I1
tp1
a.(lp0
(I10
I1
tp1
a.(lp0
(I1
I3
tp1
a.(lp0
(I1
I1
tp1
a.(lp0
(I9
I2
tp1
a.(lp0
(I5
I5
tp1
a.(lp0
(I5
I1
tp1
a.(lp0
(I1
I1
tp1
a(I10
I1
tp2
a.(lp0
(I1
I1
tp1
a.(lp0
(I1
I23
tp1
a(I10
I6
tp2
a(I5
I2
tp3
a(I6
I2
tp4
a.(lp0
(I9
I1
tp1
a.(lp0
(I5
I2
tp1
a(I11
I1
tp2
a.(lp0
(I1
I2
tp1
a.(lp0
(I1
I2
tp1
a(I6
I1
tp2
a.(lp0
(I1
I1
tp1
a.(lp0
(I1
I1
tp1
a.(lp0
(I6
I1
tp1
a.(lp0
(I1
I1
tp1
a.(lp0
(I6
I1
tp1
a.(lp0
(I1
I1
tp1
a.(lp0
(I11
I2
tp1
a.(lp0
(I1
I1
tp1
a.(lp0
(I1
I1
tp1
a.(lp0
(I1
I1
tp1
a.(lp0
(I1
I2
tp1
a.(lp0
(I1
I1
tp1
a.(lp0
(I10
I3
tp1
a(I9
I1
tp2
a(I11
I1
tp3
a.(lp0
(I9
I2
tp1
a.(lp0
(I5
I2
tp1
a.(lp0
(I1
I1
tp1
a(I6
I1
tp2
a.(lp0
(I1
I1
tp1
a.(lp0
(I5
I1
tp1
a.(lp0
(I10
I1
tp1
a.(lp0
(I6
I1
tp1
a.(lp0
(I11
I6
tp1
a(I1
I5
tp2
a(I9
I2
tp3
a(I10
I1
tp4
a.(lp0
(I1
I1
tp1
a.(lp0
(I6
I1
tp1
a.(lp0
(I5
I1
tp1
a.(lp0
(I5
I1
tp1
a(I6
I1
tp2
a.(lp0
(I10
I1
tp1
a.(lp0
(I1
I1
tp1
a.(lp0
(I10
I1
tp1
a.(lp0
(I1
I2
tp1
a.(lp0
(I10
I9
tp1
a(I9
I3
tp2
a(I1
I2
tp3
a.(lp0
(I1
I1
tp1
a.(lp0
(I5
I1
tp1
a.(lp0
(I11
I5
tp1
a.(lp0
(I1
I6
tp1
a(I6
I2
tp2
a(I9
I1
tp3
a.(lp0
(I5
I2
tp1
a.(lp0
(I10
I1
tp1
a.(lp0
(I10
I2
tp1
a.(lp0
(I9
I1
tp1
a.(lp0
(I6
I12
tp1
a(I5
I2
tp2
a.(lp0
(I10
I1
tp1
a.(lp0
(I1
I1
tp1
a(I10
I1
tp2
a.(lp0
(I1
I3
tp1
a.(lp0
(I9
I2
tp1
a.(lp0
(I6
I2
tp1
a(I5
I1
tp2
a.(lp0
(I1
I1
tp1
a.(lp0
(I10
I2
tp1
a.(lp0
(I1
I3
tp1
a.(lp0
(I6
I2
tp1
a.(lp0
(I6
I8
tp1
a.(lp0
(I1
I1
tp1
a.(lp0
(I9
I1
tp1
a.(lp0
(I11
I1
tp1
a.(lp0
(I1
I1
tp1
a.(lp0
(I1
I2
tp1
a.(lp0
(I1
I1
tp1
a.(lp0
(I5
I1
tp1
a.(lp0
(I6
I1
tp1
a.(lp0
(I1
I2
tp1
a.(lp0
(I1
I1
tp1
a.(lp0
(I1
I18
tp1
a(I10
I15
tp2
a(I9
I3
tp3
a(I5
I2
tp4
a(I6
I1
tp5
a.(lp0
(I10
I2
tp1
a.(lp0
(I6
I1
tp1
a.(lp0
(I1
I1
tp1
a.(lp0
(I6
I1
tp1
a.(lp0
(I1
I1
tp1
a.(lp0
(I1
I1
tp1
a.(lp0
(I1
I2
tp1
a.(lp0
(I1
I1
tp1
a.(lp0
(I1
I1
tp1
a.(lp0
(I1
I1
tp1
a.(lp0
(I1
I5
tp1
a.(lp0
(I6
I1
tp1
a.(lp0
(I5
I1
tp1
a.(lp0
(I9
I2
tp1
a(I6
I2
tp2
a.(lp0
(I10
I2
tp1
a.(lp0
(I5
I2
tp1
a.(lp0
(I6
I2
tp1
a.(lp0
(I10
I3
tp1
a.(lp0
(I1
I1
tp1
a.(lp0
(I6
I2
tp1
a(I1
I1
tp2
a.(lp0
(I1
I1
tp1
a.(lp0
(I1
I2
tp1
a.(lp0
(I9
I1
tp1
a(I10
I1
tp2
a(I11
I1
tp3
a.(lp0
(I5
I1
tp1
a.(lp0
(I11
I1
tp1
a.(lp0
(I5
I2
tp1
a.(lp0
(I6
I1
tp1
a.(lp0
(I10
I1
tp1
a.(lp0
(I10
I2
tp1
a.(lp0
(I1
I1
tp1
a.(lp0
(I9
I2
tp1
a.(lp0
(I1
I1
tp1
a.(lp0
(I1
I2
tp1
a(I6
I2
tp2
a.(lp0
(I6
I1
tp1
a.(lp0
(I11
I1
tp1
a.(lp0
(I6
I1
tp1
a.(lp0
(I1
I10
tp1
a(I10
I4
tp2
a(I5
I3
tp3
a(I6
I2
tp4
a(I9
I1
tp5
a.(lp0
(I1
I1
tp1
a.(lp0
(I1
I1
tp1
a.(lp0
(I1
I3
tp1
a(I10
I2
tp2
a(I11
I1
tp3
a(I5
I1
tp4
a.(lp0
(I1
I2
tp1
a.(lp0
(I1
I1
tp1
a.(lp0
(I10
I1
tp1
a.(lp0
(I5
I3
tp1
a.(lp0
(I1
I4
tp1
a(I10
I2
tp2
a.(lp0
(I5
I3
tp1
a(I6
I2
tp2
a.(lp0
(I5
I1
tp1
a.(lp0
(I1
I1
tp1
a.(lp0
(I6
I8
tp1
a.(lp0
(I1
I1
tp1
a.(lp0
(I1
I1
tp1
a.(lp0
(I1
I3
tp1
a.(lp0
(I10
I10
tp1
a(I1
I8
tp2
a(I9
I4
tp3
a(I6
I2
tp4
a(I11
I1
tp5
a.(lp0
(I5
I2
tp1
a.(lp0
(I1
I1
tp1
a.(lp0
(I1
I2
tp1
a.(lp0
(I1
I1
tp1
a.(lp0
(I1
I1
tp1
a.(lp0
(I1
I7
tp1
a.(lp0
(I10
I1
tp1
a.(lp0
(I5
I1
tp1
a(I6
I1
tp2
a.(lp0
(I9
I1
tp1
a.(lp0
(I5
I1
tp1
a.(lp0
(I11
I1
tp1
a.(lp0
(I1
I2
tp1
a.(lp0
(I1
I3
tp1
a.(lp0
(I5
I1
tp1
a.(lp0
(I1
I1
tp1
a(I11
I1
tp2
a(I5
I1
tp3
a.(lp0
(I1
I1
tp1
a(I10
I1
tp2
a(I11
I1
tp3
a.(lp0
(I1
I1
tp1
a.(lp0
(I11
I1
tp1
a.(lp0
(I6
I3
tp1
a(I11
I1
tp2
a.(lp0
(I10
I1
tp1
a.(lp0
(I10
I1
tp1
a.(lp0
(I10
I1
tp1
a.(lp0
(I1
I1
tp1
a.(lp0
(I1
I1
tp1
a.(lp0
(I5
I1
tp1
a.(lp0
(I6
I2
tp1
a.(lp0
(I10
I1
tp1
a.(lp0
(I6
I1
tp1
a.(lp0
(I11
I1
tp1
a.(lp0
(I6
I1
tp1
a.(lp0
(I1
I1
tp1
a.(lp0
(I1
I3
tp1
a.(lp0
(I10
I2
tp1
a(I1
I1
tp2
a.(lp0
(I1
I3
tp1
a.(lp0
(I1
I1
tp1
a.(lp0
(I6
I1
tp1
a.(lp0
(I10
I1
tp1
a.(lp0
(I1
I2
tp1
a(I5
I1
tp2
a.(lp0
(I9
I1
tp1
a.(lp0
(I11
I1
tp1
a.(lp0
(I1
I2
tp1
a.(lp0
(I1
I1
tp1
a.(lp0
(I5
I1
tp1
a.(lp0
(I10
I1
tp1
a(I6
I1
tp2
a.(lp0
(I5
I1
tp1
a.(lp0
(I6
I1
tp1
a.(lp0
(I10
I1
tp1
a.(lp0
(I1
I3
tp1
a.(lp0
(I1
I1
tp1
a(I10
I1
tp2
a(I9
I1
tp3
a.(lp0
(I1
I4
tp1
a(I5
I1
tp2
a(I6
I1
tp3
a(I9
I1
tp4
a.(lp0
(I1
I1
tp1
a.(lp0
(I1
I20
tp1
a(I10
I4
tp2
a(I9
I1
tp3
a.(lp0
(I6
I1
tp1
a.(lp0
(I10
I2
tp1
a(I9
I1
tp2
a(I11
I1
tp3
a.(lp0
(I1
I1
tp1
a.(lp0
(I5
I1
tp1
a.(lp0
(I1
I1
tp1
a.(lp0
(I6
I1
tp1
a.(lp0
(I10
I1
tp1
a.(lp0
(I1
I1
tp1
a.(lp0
(I10
I1
tp1
a(I6
I1
tp2
a.(lp0
(I6
I1
tp1
a.(lp0
(I6
I1
tp1
a.(lp0
(I10
I1
tp1
a.(lp0
(I5
I1
tp1
a.(lp0
(I10
I2
tp1
a.(lp0
(I6
I2
tp1
a(I1
I1
tp2
a.(lp0
(I11
I1
tp1
a.(lp0
(I11
I1
tp1
a.(lp0
(I6
I1
tp1
a.(lp0
(I6
I1
tp1
a.(lp0
(I6
I2
tp1
a.(lp0
(I1
I1
tp1
a.(lp0
(I1
I7
tp1
a(I10
I1
tp2
a.